target datalayout = "e-m:e-p270:32:32-p271:32:32-p272:64:64-i64:64-i128:128-f80:128-n8:16:32:64-S128"
target triple = "x86_64-pc-linux-gnu"

; Function Attrs: mustprogress uwtable
define hidden i32 @mbedtls_aes_crypt_ecb(ptr noundef %0, i32 noundef %1, ptr noundef %2, ptr noundef %3) #2 {
  %5 = alloca i32, align 4
  %6 = alloca ptr, align 8
  %7 = alloca i32, align 4
  %8 = alloca ptr, align 8
  %9 = alloca ptr, align 8
  store ptr %0, ptr %6, align 8, !tbaa !3
  store i32 %1, ptr %7, align 4, !tbaa !10
  store ptr %2, ptr %8, align 8, !tbaa !8
  store ptr %3, ptr %9, align 8, !tbaa !8
  br label %10

10:                                               ; preds = %4
  br label %11

11:                                               ; preds = %10
  br label %12

12:                                               ; preds = %11
  br label %13

13:                                               ; preds = %12
  br label %14

14:                                               ; preds = %13
  br label %15

15:                                               ; preds = %14
  br label %16

16:                                               ; preds = %15
  br label %17

17:                                               ; preds = %16
  %18 = load i32, ptr %7, align 4, !tbaa !10
  %19 = icmp eq i32 %18, 1
  br i1 %19, label %20, label %25

20:                                               ; preds = %17
  %21 = load ptr, ptr %6, align 8, !tbaa !3
  %22 = load ptr, ptr %8, align 8, !tbaa !8
  %23 = load ptr, ptr %9, align 8, !tbaa !8
  %24 = call i32 @mbedtls_internal_aes_encrypt(ptr noundef %21, ptr noundef %22, ptr noundef %23)
  store i32 %24, ptr %5, align 4
  br label %30

25:                                               ; preds = %17
  %26 = load ptr, ptr %6, align 8, !tbaa !3
  %27 = load ptr, ptr %8, align 8, !tbaa !8
  %28 = load ptr, ptr %9, align 8, !tbaa !8
  %29 = call i32 @mbedtls_internal_aes_decrypt(ptr noundef %26, ptr noundef %27, ptr noundef %28)
  store i32 %29, ptr %5, align 4
  br label %30

30:                                               ; preds = %25, %20
  %31 = load i32, ptr %5, align 4
  ret i32 %31
}