; Function Attrs: mustprogress uwtable
define hidden noundef i32 @mbedtls_aes_crypt_ecb(ptr noundef readonly captures(none) %0, i32 noundef %1, ptr noundef readonly captures(none) %2, ptr noundef writeonly captures(none) %3) local_unnamed_addr #2 {
  %5 = icmp eq i32 %1, 1
  br i1 %5, label %6, label %8

6:                                                ; preds = %4
  %7 = tail call i32 @mbedtls_internal_aes_encrypt(ptr noundef %0, ptr noundef %2, ptr noundef %3)
  br label %10

8:                                                ; preds = %4
  %9 = tail call i32 @mbedtls_internal_aes_decrypt(ptr noundef %0, ptr noundef %2, ptr noundef %3)
  br label %10

10:                                               ; preds = %8, %6
  ret i32 0
}